(dp0
S'column_names'
p1
(lp2
S'bucket_id'
p3
aS'title_number_of_characters'
p4
aS'number_of_characters'
p5
aS'number_of_interpunction_characters'
p6
aS'interpunction_ratio'
p7
aS'number_of_lines'
p8
aS'average_line_length'
p9
aS'number_of_words'
p10
aS'average_word_length'
p11
aS'creation_seconds'
p12
aS'number_of_tags'
p13
aS'user_age'
p14
aS'posts_amount'
p15
aS'answered_posts_amount'
p16
asS'scatter_points'
p17
cnumpy.core.multiarray
_reconstruct
p18
(cnumpy
ndarray
p19
(I0
tp20
S'b'
p21
tp22
Rp23
(I1
(I100
I14
tp24
cnumpy
dtype
p25
(S'O8'
p26
I0
I1
tp27
Rp28
(I3
S'|'
p29
NNNI-1
I-1
I63
tp30
bI00
(lp31
F1.0
aF20.548984700973573
aF18.54613440067411
aF0.0
aF8.305703826631613e-05
aF1.0000033284611003
aF18.54616316427029
aF3.0
aF4.273430054153126
aF1261962846.8366466
aF1.0
aF259.57526051717485
aF0.0
aF0.0
aF2.0
aF22.535816391359592
aF20.540928079485152
aF1.0
aF0.0108119667810101
aNaF20.54096417281349
aF4.0
aF4.416260579807795
aF1273076838.14275
aF2.0
aF402.3101612187546
aF1.0
aF1.0
aF3.0
aF24.0
aF22.0
aF2.0
aF0.012009057932509755
aNaF22.0
aF5.0
aF4.5175351667861925
aF1282127063.3953924
aF3.0
aF537.6272295382564
aF2.0
aF2.0
aF4.0
aF25.0
aF23.0
aF3.0
aF0.012844799472219904
aNaF23.0
aF6.0
aF4.5899954352609615
aF1289751994.1829586
aF4.0
aF681.3162274618585
aF3.0
aF3.0
aF5.0
aF26.0
aF24.0
aF4.306345447121274
aF0.013621722431678307
aNaF24.0
aF7.0
aF4.655471923691352
aF1296308744.5090663
aF5.000036193723284
aF833.9856627179826
aF4.0
aF4.0
aF6.0
aF27.0
aF25.0
aF7.39839530127432
aF0.014295988967784874
aNaF25.0
aF8.0
aF4.7146513934062675
aF1301417852.6095705
aNaF1030.123013764791
aF5.0
aF5.0
aF7.0
aF28.0
aF26.0
aNaF0.014818346249348257
aNaF26.0
aF9.0
aF4.7621896110836985
aF1306167551.3340623
aNaF1312.9486456503653
aF6.0
aF6.0
aF8.0
aF29.0
aF27.0
aNaF0.015270412818012632
aNaF27.0
aF10.0
aF4.818926516237428
aF1310588481.167838
aNaF1781.8083641172982
aF7.0
aF7.0
aF9.0
aF30.0
aF28.0
aNaF0.01588338119298629
aNaF28.0
aF11.0
aF4.8662872432737165
aF1314897033.7150764
aNaF2743.414661580595
aF8.0
aF8.0
aF10.0
aF31.0
aF29.0
aNaF0.016533501227730594
aNaF29.0
aF12.0
aF4.9068047107192845
aF1319486518.8043962
aNaF6904.571220068415
aF9.0
aF9.0
aF11.0
aF32.0
aF30.0
aNaF0.01695153756170166
aNaF30.0
aF13.0
aF4.94387971347018
aF1323606939.2497098
aNaF44113.5
aF10.0
aF10.0
aF12.0
aF33.0
aF31.0
aNaF0.017399401075061386
aNaF31.0
aF14.0
aF5.017033174388723
aF1327552328.1071808
aNaF121353.95355808699
aF11.0
aF11.0
aF13.0
aF34.0
aF32.0
aNaF0.018026012068894627
aNaF32.0
aF15.0
aF5.10666741780492
aF1331045300.2904146
aNaF252330.52970272044
aF12.0
aF12.0
aF14.0
aF35.0
aF33.0
aNaF0.018523432185391885
aNaF33.00001253541254
aF16.40816634346046
aF5.1346810138052446
aF1334379048.6300676
aNaF429327.33971694147
aF13.0
aF13.0
aF15.0
aF36.0
aF34.0
aNaF0.019056477370876
aNaF34.0
aF18.408161398051146
aF5.168896227445214
aF1337834146.1048062
aNaF620229.1336192358
aF14.0
aF14.0
aF16.0
aF37.0
aF35.0
aNaF0.01961528427432326
aNaF35.0
aF22.03411838923352
aF5.20107135491881
aF1341281548.5983996
aNaF858567.1526629935
aF15.0
aF15.0
aF17.0
aF38.0
aF36.0
aNaF0.020206392069986753
aNaF36.0
aNaF5.225179701434521
aF1344388349.9589243
aNaF1135565.5035640495
aF16.0
aF16.0
aF18.0
aF39.0
aF37.0
aNaF0.020836246356518654
aNaF37.0
aNaF5.255938530572206
aF1347598122.8167534
aNaF1433082.0493587253
aF17.0
aF17.47680412371134
aF19.0
aF40.0
aF38.0
aNaF0.021291184096328845
aNaF38.0
aNaF5.291213716055414
aF1350977062.9042578
aNaF1794306.276773909
aF18.0
aF19.0
aF20.0
aF41.0
aF39.0
aNaF0.02200064683561028
aNaF39.0
aNaF5.309685985357231
aF1354106675.2085178
aNaF2172315.2084192764
aF19.0
aF20.479486688373875
aF21.0
aF42.0
aF40.0
aNaF0.02275125341504387
aNaF40.0
aNaF5.335573500854045
aF1357400927.0551598
aNaF2571204.4718590397
aF20.487803447871467
aF22.483607266435985
aF22.0
aF43.0
aF41.0
aNaF0.023283764527016314
aNaF41.0
aNaF5.373596847016424
aF1360464465.1557667
aNaF3037902.291195888
aF22.0
aF24.48135576783203
aF23.0
aF44.0
aF42.0
aNaF0.023841923067193464
aNaF42.0
aNaF5.403673444885242
aF1363076115.6613944
aNaF3535704.4659874607
aF23.0
aF26.485362840414673
aF24.0
aF45.0
aF43.0
aNaF0.024691680464144952
aNaF43.0
aNaF5.429238263318779
aF1365703121.6963592
aNaF4075769.6766720028
aF24.487691187181355
aF28.969258150635063
aF25.0
aF46.0
aF44.0
aNaF0.02564906608737204
aNaF44.0
aNaF5.452654050782237
aF1368651168.3993583
aNaF4700277.628898176
aF26.489656006775014
aF31.97661501120239
aF26.0
aF47.0
aF45.0
aNaF0.026374455955922686
aNaF45.0
aNaF5.500235306740644
aF1371532459.1951878
aNaF5314261.081119108
aF28.489879261363637
aF34.97747603833866
aF27.0
aF48.0
aF46.0
aNaF0.027097020130540515
aNaF46.000010857291755
aNaF5.5485271078713065
aF1374096008.9366784
aNaF6003886.408150338
aF30.48776334355082
aF38.44263734232777
aF28.0
aF49.0
aF47.0
aNaF0.028180704863894603
aNaF47.0
aNaF5.57472675023826
aF1376900396.5872002
aNaF6763117.210022408
aF32.49113465736649
aF42.916974892302335
aF29.0
aF50.0
aF48.0
aNaF0.02941803739781033
aNaF48.0
aNaF5.600222949624458
aF1380040548.0009599
aNaF7504095.512645583
aF34.48468030986241
aF47.944905968095405
aF30.0
aF51.0
aF49.0
aNaF0.030416459396318637
aNaF49.0
aNaF5.623266067872164
aF1382810612.0382428
aNaF8334673.495872931
aF36.977354145342886
aF53.87837837837838
aF31.0
aF52.0
aF50.0
aNaF0.03139115317725297
aNaF50.0
aNaF5.639014968561102
aF1385348932.5035527
aNaF9244762.620934494
aF39.975858823529414
aF61.37585279139041
aF32.0
aF53.0
aF51.0
aNaF0.032422757119126636
aNaF51.0
aNaF5.667338170784411
aF1388290795.1121557
aNaF10153558.379811285
aF43.454685220956364
aF70.30709041731066
aF33.0
aF54.0
aF52.0
aNaF0.033519219271871216
aNaF52.0
aNaF5.698385606848679
aF1390905596.6161106
aNaF11036774.646274101
aF46.980427776150016
aF81.71523878089752
aF34.0
aF55.0
aF53.0
aNaF0.03509505928424253
aNaF53.0
aNaF5.7189765565631365
aF1393227420.3418865
aNaF11935455.002849966
aF50.46322625079943
aF97.00682788051209
aF35.0
aF56.0
aF54.0
aNaF0.036829737316007305
aNaF54.0
aNaF5.752172894761698
aF1395478787.6815822
aNaF12980969.553905554
aF54.94890021459227
aF118.14297601566324
aF36.0
aF57.0
aF55.0
aNaF0.03827728141356727
aNaF55.0
aNaF5.779220507647824
aF1397722154.2317955
aNaF13990880.53555662
aF60.44301407483694
aF153.22393162393163
aF37.0
aF58.0
aF56.0
aNaF0.040018020410507345
aNaF56.0
aNaF5.804467577818129
aF1400262920.618453
aNaF15016805.326726569
aF66.43091558866462
aF222.17859690844233
aF38.0
aF59.0
aF57.0
aNaF0.04200186057949432
aNaF57.0
aNaF5.835054522856081
aF1403146557.2133858
aNaF16120416.710226992
aF72.90602741071868
aF468.31176226962106
aF39.0
aF60.0
aF58.0
aNaF0.04395114105494745
aNaF58.0
aNaF5.857845753054133
aF1406035515.5949378
aNaF17173037.854575742
aF80.8442256447315
aNaF40.0
aF61.0
aF59.0
aNaF0.0459975898239169
aNaF59.0
aNaF5.8812227843518174
aF1408782841.2514524
aNaF18281811.122905027
aF90.34628427477958
aNaF41.0
aF62.0
aF60.0
aNaF0.04822618298253587
aNaF60.0
aNaF5.911494800081203
aF1411567921.9777703
aNaF19517414.08945034
aF101.71191033944238
aNaF42.0
aF63.0
aF61.0
aNaF0.05070157001507838
aNaF61.0
aNaF5.942699960789765
aF1414477641.8520963
aNaF20699295.081863634
aF115.7341152982281
aNaF43.0
aF64.0
aF62.0
aNaF0.05429895784206706
aNaF62.0
aNaF6.001474367700404
aF1417286889.6605132
aNaF21896474.27413556
aF133.92327399620123
aNaF44.0
aF65.0
aF63.0
aNaF0.058440878322081086
aNaF63.0
aNaF6.089959024328467
aF1420450513.555662
aNaF23222825.06529323
aF158.34931134916326
aNaF45.0
aF66.0
aF64.0
aNaF0.06274563561500518
aNaF64.0
aNaF6.119510164081066
aF1423293006.7534707
aNaF24511680.055621013
aF191.43124209342642
aNaF46.0
aF67.0
aF65.0
aNaF0.06892674611569365
aNaF65.0
aNaF6.144211713985225
aF1425918502.0746973
aNaF25849634.95570501
aF243.07068697845915
aNaF47.0
aF68.0
aF66.0
aNaF0.0772500163260713
aNaF66.0
aNaF6.170196266857402
aF1428564377.0478868
aNaF27270809.855374563
aF332.1846347607053
aNaF48.0
aF69.0
aF67.0
aNaF0.08952764297612192
aNaF67.0
aNaF6.2000569858285335
aF1431309147.240906
aNaF28598174.013531655
aF657.4125573126228
aNaF0.0
aF17.497501517769578
aF16.04816853068229
aNaNaNaF16.04775147928994
aF1.9470618690137198
aF3.963090819945446
aF1240679911.8605657
aNaF-264057.10971408116
aNaNaF49.0
aF70.0
aF68.0
aNaF0.12936651496760052
aNaF68.0
aNaF6.223017798797137
aF1434089338.6148567
aNaF30001364.46405737
aNaNaF50.0
aF71.0
aF69.0
aNaNaNaF69.0
aNaF6.253708488514323
aF1436764938.7148824
aNaF31444279.37019535
aNaNaF51.0
aF72.0
aF70.4856131265358
aNaNaNaF70.4856131265358
aNaF6.289904887492106
aF1439448737.3031318
aNaF32849204.90253015
aNaNaF52.0
aF73.0
aF72.0
aNaNaNaF72.0
aNaF6.3089107855617
aF1442093833.5926793
aNaF34347889.73125238
aNaNaF53.0
aF74.0
aF73.0
aNaNaNaF73.0
aNaF6.337298854593697
aF1444829972.1634815
aNaF35910404.56341015
aNaNaF54.0
aF75.0
aF74.0
aNaNaNaF74.0
aNaF6.376332892133313
aF1447677036.6712275
aNaF37543347.25340637
aNaNaF55.0
aF76.49075382248596
aF75.48850454955894
aNaNaNaF75.48850454955894
aNaF6.401848153518126
aF1450569021.3392007
aNaF39244980.30060221
aNaNaF56.0
aF78.0
aF77.48045147777519
aNaNaNaF77.48045147777519
aNaF6.439132400082742
aF1453585295.6557949
aNaF40921490.181669146
aNaNaF57.0
aF79.48622794610289
aF79.0
aNaNaNaF79.0
aNaF6.501513454725179
aF1456279214.9304864
aNaF42572699.79313632
aNaNaF58.0
aF81.48569078947368
aF80.96491786578378
aNaNaNaF80.96491786578378
aNaF6.552655947342911
aF1458757174.439027
aNaF44259513.50635116
aNaNaF59.0
aF83.0
aF83.48460516114741
aNaNaNaF83.48460516114741
aNaF6.573101271103356
aF1461197277.4795232
aNaF46043904.20990072
aNaNaF60.0
aF84.96148128125422
aF85.96487239974266
aNaNaNaF85.96487239974266
aNaF6.6118508577067425
aF1463916800.5396862
aNaF47894199.71505883
aNaNaF61.0
aF87.48269174258007
aF88.95172705186437
aNaNaNaF88.95172705186437
aNaF6.682991975370266
aF1466772300.554561
aNaF49837339.53745352
aNaNaF62.0
aF89.96670030272452
aF92.421612569571
aNaNaNaF92.42160484705187
aNaF6.7473811319053345
aF1469641342.7712963
aNaF51906744.28690896
aNaNaF63.0
aF93.41306489612337
aF97.2979709362487
aNaNaNaF97.2979709362487
aNaF6.777284583276258
aF1472498353.1886227
aNaF53855434.18018406
aNaNaF64.0
aF97.87874477731354
aF104.9034430427772
aNaNaNaF104.9034430427772
aNaF6.81588036633012
aF1475458184.7287283
aNaF55860829.17476648
aNaNaF65.0
aF103.30497703727438
aF123.65504910841995
aNaNaNaF123.65455585753111
aNaF6.864710218061475
aF1478460294.2925057
aNaF58142369.946793325
aNaNaF66.0
aF111.80705441586329
aNaNaNaNaNaNaF6.901966016886773
aF1481404415.1145535
aNaF60302270.51150037
aNaNaF67.0
aF130.72050898203594
aNaNaNaNaNaNaF7.003953447563516
aF1484553996.044566
aNaF62381770.68963523
aNaNaF68.0
aNaNaNaNaNaNaNaF7.127470937617022
aF1487245813.9350321
aNaF64701810.14416718
aNaNaF69.0
aNaNaNaNaNaNaNaF7.1683336867601195
aF1489907593.5671911
aNaF67153694.97819506
aNaNaF70.0
aNaNaNaNaNaNaNaF7.205092731579228
aF1492639968.6294444
aNaF69517547.51149543
aNaNaF71.0
aNaNaNaNaNaNaNaF7.265028465909612
aF1495480162.620448
aNaF71963223.43387493
aNaNaF72.0
aNaNaNaNaNaNaNaF7.342597803789168
aF1498534099.3981953
aNaF74711619.07073534
aNaNaF73.0
aNaNaNaNaNaNaNaF7.41643051540768
aF1501581394.4861212
aNaF77487597.35813412
aNaNaF74.0
aNaNaNaNaNaNaNaF7.537280660577598
aF1504675939.6272244
aNaF80285307.4962109
aNaNaF75.0
aNaNaNaNaNaNaNaF7.658759746435839
aF1508688966.4236057
aNaF83233629.27640383
aNaNaF76.0
aNaNaNaNaNaNaNaF7.740624275111837
aF1512740616.4510953
aNaF86320910.63209662
aNaNaF77.0
aNaNaNaNaNaNaNaF7.832087065730237
aF1517147463.7395494
aNaF89528221.83665437
aNaNaF78.0
aNaNaNaNaNaNaNaF7.908493913652409
aF1520980407.929145
aNaF92913204.11864483
aNaNaF79.0
aNaNaNaNaNaNaNaF8.011310082825764
aF1524646873.666347
aNaF96546719.91635191
aNaNaF80.0
aNaNaNaNaNaNaNaF8.20521849622582
aF1528767100.2437148
aNaF100067043.09550712
aNaNaF81.0
aNaNaNaNaNaNaNaF8.356289484271693
aF1533100550.4073179
aNaF103723650.7508008
aNaNaF82.0
aNaNaNaNaNaNaNaF8.534490564448063
aF1537562125.4003026
aNaF107831205.09623773
aNaNaF83.0
aNaNaNaNaNaNaNaF8.74268557025441
aF1541823312.6040585
aNaF112102115.79693764
aNaNaF84.0
aNaNaNaNaNaNaNaF9.017529418094757
aF1546242546.4153845
aNaF116578281.14610495
aNaNaF85.0
aNaNaNaNaNaNaNaF9.383441922639394
aF1550901782.075065
aNaF121229733.50987943
aNaNaF86.0
aNaNaNaNaNaNaNaF9.921720852618131
aF1555251583.3498576
aNaF126096156.94128796
aNaNaF87.0
aNaNaNaNaNaNaNaF10.8351408398916
aF1560041547.300997
aNaF131480405.57415923
aNaNaF88.0
aNaNaNaNaNaNaNaF14.862771337668473
aF1564435031.2344086
aNaF137230070.37702554
aNaNaF89.0
aNaNaNaNaNaNaNaNaF1568753843.8801928
aNaF143693803.75746995
aNaNaF90.0
aNaNaNaNaNaNaNaNaF1573349446.0309834
aNaF150509507.9752551
aNaNaF91.0
aNaNaNaNaNaNaNaNaF1577942344.3881938
aNaF157729347.24713948
aNaNaF92.0
aNaNaNaNaNaNaNaNaF1581844637.4481924
aNaF165708382.90197283
aNaNaF93.0
aNaNaNaNaNaNaNaNaF1585371539.1608775
aNaF174383482.37669417
aNaNaF94.0
aNaNaNaNaNaNaNaNaF1588365523.9424472
aNaF184297699.73550814
aNaNaF95.0
aNaNaNaNaNaNaNaNaF1591259578.1618028
aNaF196440204.19159612
aNaNaF96.0
aNaNaNaNaNaNaNaNaF1594471911.38279
aNaF210964530.63957852
aNaNaF97.0
aNaNaNaNaNaNaNaNaF1597980653.7955177
aNaF229107604.4868575
aNaNaF98.0
aNaNaNaNaNaNaNaNaF1601766980.323012
aNaF253906135.26170337
aNaNaF99.0
aNaNaNaNaNaNaNaNaF1605488291.2910779
aNaF301188202.75910974
aNaNatp32
bs.